target datalayout = "e-m:e-p270:32:32-p271:32:32-p272:64:64-i64:64-i128:128-f80:128-n8:16:32:64-S128"
target triple = "x86_64-pc-linux-gnu"

%struct._header_field_info = type { ptr, ptr, i32, i32, ptr, i64, ptr, i32, i32, i32, i32, ptr }
%struct.wscbor_chunk_t = type { ptr, i32, i32, i32, ptr, ptr, i32, i8, i64 }
%struct._wscbor_chunk_priv_t = type { ptr, ptr, ptr }
%struct.wscbor_expert_add_t = type { ptr, ptr }

; Function Attrs: null_pointer_is_valid sspstrong uwtable
define i64 @wscbor_chunk_mark_errors(ptr noundef %0, ptr noundef %1, ptr noundef %2) #0 {
  %4 = alloca ptr, align 8
  %5 = alloca ptr, align 8
  %6 = alloca ptr, align 8
  %7 = alloca %struct.wscbor_expert_add_t, align 8
  store ptr %0, ptr %4, align 8
  store ptr %1, ptr %5, align 8
  store ptr %2, ptr %6, align 8
  call void @llvm.lifetime.start.p0(i64 16, ptr %7) #7
  %8 = getelementptr inbounds nuw %struct.wscbor_expert_add_t, ptr %7, i32 0, i32 0
  %9 = load ptr, ptr %4, align 8
  store ptr %9, ptr %8, align 8
  %10 = getelementptr inbounds nuw %struct.wscbor_expert_add_t, ptr %7, i32 0, i32 1
  %11 = load ptr, ptr %5, align 8
  store ptr %11, ptr %10, align 8
  %12 = load ptr, ptr %6, align 8
  %13 = getelementptr inbounds nuw %struct.wscbor_chunk_t, ptr %12, i32 0, i32 4
  %14 = load ptr, ptr %13, align 8
  call void @wmem_list_foreach(ptr noundef %14, ptr noundef @wscbor_expert_add, ptr noundef %7)
  %15 = load ptr, ptr %6, align 8
  %16 = getelementptr inbounds nuw %struct.wscbor_chunk_t, ptr %15, i32 0, i32 0
  %17 = load ptr, ptr %16, align 8
  %18 = getelementptr inbounds nuw %struct._wscbor_chunk_priv_t, ptr %17, i32 0, i32 1
  %19 = load ptr, ptr %18, align 8
  call void @wmem_list_foreach(ptr noundef %19, ptr noundef @wscbor_expert_add, ptr noundef %7)
  %20 = load ptr, ptr %6, align 8
  %21 = getelementptr inbounds nuw %struct.wscbor_chunk_t, ptr %20, i32 0, i32 4
  %22 = load ptr, ptr %21, align 8
  %23 = call i32 @wmem_list_count(ptr noundef %22)
  %24 = zext i32 %23 to i64
  call void @llvm.lifetime.end.p0(i64 16, ptr %7) #7
  ret i64 %24
}

; Function Attrs: null_pointer_is_valid sspstrong uwtable
define ptr @proto_tree_add_cbor_container(ptr noundef %0, i32 noundef %1, ptr noundef %2, ptr noundef %3, ptr noundef %4) #0 {
  %6 = alloca ptr, align 8
  %7 = alloca i32, align 4
  %8 = alloca ptr, align 8
  %9 = alloca ptr, align 8
  %10 = alloca ptr, align 8
  %11 = alloca ptr, align 8
  %12 = alloca ptr, align 8
  store ptr %0, ptr %6, align 8
  store i32 %1, ptr %7, align 4
  store ptr %2, ptr %8, align 8
  store ptr %3, ptr %9, align 8
  store ptr %4, ptr %10, align 8
  call void @llvm.lifetime.start.p0(i64 8, ptr %11) #7
  %13 = load i32, ptr %7, align 4
  %14 = call ptr @proto_registrar_get_nth(i32 noundef %13)
  store ptr %14, ptr %11, align 8
  call void @llvm.lifetime.start.p0(i64 8, ptr %12) #7
  %15 = load ptr, ptr %11, align 8
  %16 = getelementptr inbounds nuw %struct._header_field_info, ptr %15, i32 0, i32 2
  %17 = load i32, ptr %16, align 8
  %18 = icmp eq i32 %17, 3
  br i1 %18, label %64, label %19

19:                                               ; preds = %5
  %20 = load ptr, ptr %11, align 8
  %21 = getelementptr inbounds nuw %struct._header_field_info, ptr %20, i32 0, i32 2
  %22 = load i32, ptr %21, align 8
  %23 = icmp eq i32 %22, 4
  br i1 %23, label %64, label %24

24:                                               ; preds = %19
  %25 = load ptr, ptr %11, align 8
  %26 = getelementptr inbounds nuw %struct._header_field_info, ptr %25, i32 0, i32 2
  %27 = load i32, ptr %26, align 8
  %28 = icmp eq i32 %27, 5
  br i1 %28, label %64, label %29

29:                                               ; preds = %24
  %30 = load ptr, ptr %11, align 8
  %31 = getelementptr inbounds nuw %struct._header_field_info, ptr %30, i32 0, i32 2
  %32 = load i32, ptr %31, align 8
  %33 = icmp eq i32 %32, 6
  br i1 %33, label %64, label %34

34:                                               ; preds = %29
  %35 = load ptr, ptr %11, align 8
  %36 = getelementptr inbounds nuw %struct._header_field_info, ptr %35, i32 0, i32 2
  %37 = load i32, ptr %36, align 8
  %38 = icmp eq i32 %37, 7
  br i1 %38, label %64, label %39

39:                                               ; preds = %34
  %40 = load ptr, ptr %11, align 8
  %41 = getelementptr inbounds nuw %struct._header_field_info, ptr %40, i32 0, i32 2
  %42 = load i32, ptr %41, align 8
  %43 = icmp eq i32 %42, 35
  br i1 %43, label %64, label %44

44:                                               ; preds = %39
  %45 = load ptr, ptr %11, align 8
  %46 = getelementptr inbounds nuw %struct._header_field_info, ptr %45, i32 0, i32 2
  %47 = load i32, ptr %46, align 8
  %48 = icmp eq i32 %47, 8
  br i1 %48, label %64, label %49

49:                                               ; preds = %44
  %50 = load ptr, ptr %11, align 8
  %51 = getelementptr inbounds nuw %struct._header_field_info, ptr %50, i32 0, i32 2
  %52 = load i32, ptr %51, align 8
  %53 = icmp eq i32 %52, 9
  br i1 %53, label %64, label %54

54:                                               ; preds = %49
  %55 = load ptr, ptr %11, align 8
  %56 = getelementptr inbounds nuw %struct._header_field_info, ptr %55, i32 0, i32 2
  %57 = load i32, ptr %56, align 8
  %58 = icmp eq i32 %57, 10
  br i1 %58, label %64, label %59

59:                                               ; preds = %54
  %60 = load ptr, ptr %11, align 8
  %61 = getelementptr inbounds nuw %struct._header_field_info, ptr %60, i32 0, i32 2
  %62 = load i32, ptr %61, align 8
  %63 = icmp eq i32 %62, 11
  br i1 %63, label %64, label %78

64:                                               ; preds = %59, %54, %49, %44, %39, %34, %29, %24, %19, %5
  %65 = load ptr, ptr %6, align 8
  %66 = load i32, ptr %7, align 4
  %67 = load ptr, ptr %9, align 8
  %68 = load ptr, ptr %10, align 8
  %69 = getelementptr inbounds nuw %struct.wscbor_chunk_t, ptr %68, i32 0, i32 1
  %70 = load i32, ptr %69, align 8
  %71 = load ptr, ptr %10, align 8
  %72 = getelementptr inbounds nuw %struct.wscbor_chunk_t, ptr %71, i32 0, i32 2
  %73 = load i32, ptr %72, align 4
  %74 = load ptr, ptr %10, align 8
  %75 = getelementptr inbounds nuw %struct.wscbor_chunk_t, ptr %74, i32 0, i32 8
  %76 = load i64, ptr %75, align 8
  %77 = call ptr @proto_tree_add_uint64(ptr noundef %65, i32 noundef %66, ptr noundef %67, i32 noundef %70, i32 noundef %73, i64 noundef %76)
  store ptr %77, ptr %12, align 8
  br label %141

78:                                               ; preds = %59
  %79 = load ptr, ptr %11, align 8
  %80 = getelementptr inbounds nuw %struct._header_field_info, ptr %79, i32 0, i32 2
  %81 = load i32, ptr %80, align 8
  %82 = icmp eq i32 %81, 12
  br i1 %82, label %118, label %83

83:                                               ; preds = %78
  %84 = load ptr, ptr %11, align 8
  %85 = getelementptr inbounds nuw %struct._header_field_info, ptr %84, i32 0, i32 2
  %86 = load i32, ptr %85, align 8
  %87 = icmp eq i32 %86, 13
  br i1 %87, label %118, label %88

88:                                               ; preds = %83
  %89 = load ptr, ptr %11, align 8
  %90 = getelementptr inbounds nuw %struct._header_field_info, ptr %89, i32 0, i32 2
  %91 = load i32, ptr %90, align 8
  %92 = icmp eq i32 %91, 14
  br i1 %92, label %118, label %93

93:                                               ; preds = %88
  %94 = load ptr, ptr %11, align 8
  %95 = getelementptr inbounds nuw %struct._header_field_info, ptr %94, i32 0, i32 2
  %96 = load i32, ptr %95, align 8
  %97 = icmp eq i32 %96, 15
  br i1 %97, label %118, label %98

98:                                               ; preds = %93
  %99 = load ptr, ptr %11, align 8
  %100 = getelementptr inbounds nuw %struct._header_field_info, ptr %99, i32 0, i32 2
  %101 = load i32, ptr %100, align 8
  %102 = icmp eq i32 %101, 16
  br i1 %102, label %118, label %103

103:                                              ; preds = %98
  %104 = load ptr, ptr %11, align 8
  %105 = getelementptr inbounds nuw %struct._header_field_info, ptr %104, i32 0, i32 2
  %106 = load i32, ptr %105, align 8
  %107 = icmp eq i32 %106, 17
  br i1 %107, label %118, label %108

108:                                              ; preds = %103
  %109 = load ptr, ptr %11, align 8
  %110 = getelementptr inbounds nuw %struct._header_field_info, ptr %109, i32 0, i32 2
  %111 = load i32, ptr %110, align 8
  %112 = icmp eq i32 %111, 18
  br i1 %112, label %118, label %113

113:                                              ; preds = %108
  %114 = load ptr, ptr %11, align 8
  %115 = getelementptr inbounds nuw %struct._header_field_info, ptr %114, i32 0, i32 2
  %116 = load i32, ptr %115, align 8
  %117 = icmp eq i32 %116, 19
  br i1 %117, label %118, label %132

118:                                              ; preds = %113, %108, %103, %98, %93, %88, %83, %78
  %119 = load ptr, ptr %6, align 8
  %120 = load i32, ptr %7, align 4
  %121 = load ptr, ptr %9, align 8
  %122 = load ptr, ptr %10, align 8
  %123 = getelementptr inbounds nuw %struct.wscbor_chunk_t, ptr %122, i32 0, i32 1
  %124 = load i32, ptr %123, align 8
  %125 = load ptr, ptr %10, align 8
  %126 = getelementptr inbounds nuw %struct.wscbor_chunk_t, ptr %125, i32 0, i32 2
  %127 = load i32, ptr %126, align 4
  %128 = load ptr, ptr %10, align 8
  %129 = getelementptr inbounds nuw %struct.wscbor_chunk_t, ptr %128, i32 0, i32 8
  %130 = load i64, ptr %129, align 8
  %131 = call ptr @proto_tree_add_int64(ptr noundef %119, i32 noundef %120, ptr noundef %121, i32 noundef %124, i32 noundef %127, i64 noundef %130)
  store ptr %131, ptr %12, align 8
  br label %140

132:                                              ; preds = %113
  %133 = load ptr, ptr %6, align 8
  %134 = load i32, ptr %7, align 4
  %135 = load ptr, ptr %9, align 8
  %136 = load ptr, ptr %10, align 8
  %137 = getelementptr inbounds nuw %struct.wscbor_chunk_t, ptr %136, i32 0, i32 1
  %138 = load i32, ptr %137, align 8
  %139 = call ptr @proto_tree_add_item(ptr noundef %133, i32 noundef %134, ptr noundef %135, i32 noundef %138, i32 noundef -1, i32 noundef 0)
  store ptr %139, ptr %12, align 8
  br label %140

140:                                              ; preds = %132, %118
  br label %141

141:                                              ; preds = %140, %64
  %142 = load ptr, ptr %8, align 8
  %143 = load ptr, ptr %12, align 8
  %144 = load ptr, ptr %10, align 8
  %145 = call i64 @wscbor_chunk_mark_errors(ptr noundef %142, ptr noundef %143, ptr noundef %144)
  %146 = load ptr, ptr %12, align 8
  call void @llvm.lifetime.end.p0(i64 8, ptr %12) #7
  call void @llvm.lifetime.end.p0(i64 8, ptr %11) #7
  ret ptr %146
}