; Function Attrs: null_pointer_is_valid sspstrong uwtable
define ptr @proto_tree_add_cbor_container(ptr noundef %0, i32 noundef %1, ptr noundef %2, ptr noundef %3, ptr noundef readonly captures(none) %4) local_unnamed_addr #0 {
  %6 = alloca %struct.wscbor_expert_add_t, align 8
  %7 = tail call ptr @proto_registrar_get_nth(i32 noundef %1)
  %8 = getelementptr inbounds nuw i8, ptr %7, i64 16
  %9 = load i32, ptr %8, align 8
  switch i32 %9, label %26 [
    i32 3, label %10
    i32 4, label %10
    i32 5, label %10
    i32 6, label %10
    i32 7, label %10
    i32 35, label %10
    i32 8, label %10
    i32 9, label %10
    i32 10, label %10
    i32 11, label %10
    i32 12, label %18
    i32 13, label %18
    i32 14, label %18
    i32 15, label %18
    i32 16, label %18
    i32 17, label %18
    i32 18, label %18
    i32 19, label %18
  ]

10:                                               ; preds = %5, %5, %5, %5, %5, %5, %5, %5, %5, %5
  %11 = getelementptr inbounds nuw i8, ptr %4, i64 8
  %12 = load i32, ptr %11, align 8
  %13 = getelementptr inbounds nuw i8, ptr %4, i64 12
  %14 = load i32, ptr %13, align 4
  %15 = getelementptr inbounds nuw i8, ptr %4, i64 48
  %16 = load i64, ptr %15, align 8
  %17 = tail call ptr @proto_tree_add_uint64(ptr noundef %0, i32 noundef %1, ptr noundef %3, i32 noundef %12, i32 noundef %14, i64 noundef %16)
  br label %30

18:                                               ; preds = %5, %5, %5, %5, %5, %5, %5, %5
  %19 = getelementptr inbounds nuw i8, ptr %4, i64 8
  %20 = load i32, ptr %19, align 8
  %21 = getelementptr inbounds nuw i8, ptr %4, i64 12
  %22 = load i32, ptr %21, align 4
  %23 = getelementptr inbounds nuw i8, ptr %4, i64 48
  %24 = load i64, ptr %23, align 8
  %25 = tail call ptr @proto_tree_add_int64(ptr noundef %0, i32 noundef %1, ptr noundef %3, i32 noundef %20, i32 noundef %22, i64 noundef %24)
  br label %30

26:                                               ; preds = %5
  %27 = getelementptr inbounds nuw i8, ptr %4, i64 8
  %28 = load i32, ptr %27, align 8
  %29 = tail call ptr @proto_tree_add_item(ptr noundef %0, i32 noundef %1, ptr noundef %3, i32 noundef %28, i32 noundef -1, i32 noundef 0)
  br label %30

30:                                               ; preds = %18, %26, %10
  %.0 = phi ptr [ %17, %10 ], [ %25, %18 ], [ %29, %26 ]
  call void @llvm.lifetime.start.p0(i64 16, ptr nonnull %6) #9
  store ptr %2, ptr %6, align 8
  %31 = getelementptr inbounds nuw i8, ptr %6, i64 8
  store ptr %.0, ptr %31, align 8
  %32 = getelementptr inbounds nuw i8, ptr %4, i64 24
  %33 = load ptr, ptr %32, align 8
  call void @wmem_list_foreach(ptr noundef %33, ptr noundef nonnull @wscbor_expert_add, ptr noundef nonnull %6)
  %34 = load ptr, ptr %4, align 8
  %35 = getelementptr inbounds nuw i8, ptr %34, i64 8
  %36 = load ptr, ptr %35, align 8
  call void @wmem_list_foreach(ptr noundef %36, ptr noundef nonnull @wscbor_expert_add, ptr noundef nonnull %6)
  %37 = load ptr, ptr %32, align 8
  %38 = call i32 @wmem_list_count(ptr noundef %37)
  call void @llvm.lifetime.end.p0(i64 16, ptr nonnull %6) #9
  ret ptr %.0
}